ccopy_reg
_reconstructor
p1
(cargparse
Namespace
p2
c__builtin__
object
p3
NtRp4
(dp5
S'loss_mode'
p6
I1
sS'learning_rate'
p7
F0.001
sS'z_dim'
p8
I8
sS'batch_size'
p9
I500
sS'diff_mode'
p10
I0
sS'checkpoint_step'
p11
I5
sS'training_epochs'
p12
I350
sS'keep_prob'
p13
F0.94999999999999996
sb.